target datalayout = "e-m:e-p270:32:32-p271:32:32-p272:64:64-i64:64-i128:128-f80:128-n8:16:32:64-S128"
target triple = "x86_64-pc-linux-gnu"

%struct._fileset_entry = type { ptr, ptr, i64, i64, i64, i32 }

; Function Attrs: nounwind uwtable
define internal void @fileset_entry_delete(ptr noundef %0, ptr noundef %1) #0 {
  %3 = alloca ptr, align 8
  %4 = alloca ptr, align 8
  %5 = alloca ptr, align 8
  store ptr %0, ptr %3, align 8
  store ptr %1, ptr %4, align 8
  %6 = load ptr, ptr %3, align 8
  store ptr %6, ptr %5, align 8
  %7 = load ptr, ptr %5, align 8
  %8 = getelementptr inbounds %struct._fileset_entry, ptr %7, i32 0, i32 0
  %9 = load ptr, ptr %8, align 8
  call void @g_free(ptr noundef %9)
  %10 = load ptr, ptr %5, align 8
  %11 = getelementptr inbounds %struct._fileset_entry, ptr %10, i32 0, i32 0
  store ptr null, ptr %11, align 8
  %12 = load ptr, ptr %5, align 8
  %13 = getelementptr inbounds %struct._fileset_entry, ptr %12, i32 0, i32 1
  %14 = load ptr, ptr %13, align 8
  call void @g_free(ptr noundef %14)
  %15 = load ptr, ptr %5, align 8
  %16 = getelementptr inbounds %struct._fileset_entry, ptr %15, i32 0, i32 1
  store ptr null, ptr %16, align 8
  %17 = load ptr, ptr %5, align 8
  call void @g_free(ptr noundef %17)
  ret void
}