; Function Attrs: nounwind uwtable
define internal void @fileset_entry_delete(ptr noundef %0, ptr readnone captures(none) %1) #0 {
  %3 = load ptr, ptr %0, align 8
  tail call void @g_free(ptr noundef %3) #9
  store ptr null, ptr %0, align 8
  %4 = getelementptr inbounds nuw i8, ptr %0, i64 8
  %5 = load ptr, ptr %4, align 8
  tail call void @g_free(ptr noundef %5) #9
  store ptr null, ptr %4, align 8
  tail call void @g_free(ptr noundef nonnull %0) #9
  ret void
}